target datalayout = "e-m:e-p270:32:32-p271:32:32-p272:64:64-i64:64-i128:128-f80:128-n8:16:32:64-S128"
target triple = "x86_64-unknown-linux-gnu"

%struct.ChardevBackend = type { i32, %union.anon }
%union.anon = type { %struct.ChardevFileWrapper }
%struct.ChardevFileWrapper = type { ptr }
%struct.ChardevHostdevWrapper = type { ptr }
%struct.ChardevHostdev = type { ptr, i8, i8, ptr }

@.str.4 = private unnamed_addr constant [5 x i8] c"path\00", align 1
@.str.5 = private unnamed_addr constant [30 x i8] c"../qemu/chardev/char-serial.c\00", align 1
@__func__.qemu_chr_parse_serial = private unnamed_addr constant [22 x i8] c"qemu_chr_parse_serial\00", align 1
@.str.6 = private unnamed_addr constant [42 x i8] c"chardev: serial/tty: no device path given\00", align 1

; Function Attrs: nounwind sspstrong uwtable
define internal ptr @qapi_ChardevHostdev_base(ptr noundef %obj) #0 {
entry:
  %obj.addr = alloca ptr, align 8
  store ptr %obj, ptr %obj.addr, align 8
  %0 = load ptr, ptr %obj.addr, align 8
  ret ptr %0
}

; Function Attrs: nounwind sspstrong uwtable
define internal void @qemu_chr_parse_serial(ptr noundef %opts, ptr noundef %backend, ptr noundef %errp) #0 {
entry:
  %opts.addr = alloca ptr, align 8
  %backend.addr = alloca ptr, align 8
  %errp.addr = alloca ptr, align 8
  %device = alloca ptr, align 8
  %serial = alloca ptr, align 8
  store ptr %opts, ptr %opts.addr, align 8
  store ptr %backend, ptr %backend.addr, align 8
  store ptr %errp, ptr %errp.addr, align 8
  %0 = load ptr, ptr %opts.addr, align 8
  %call = call ptr @qemu_opt_get(ptr noundef %0, ptr noundef @.str.4)
  store ptr %call, ptr %device, align 8
  %1 = load ptr, ptr %device, align 8
  %cmp = icmp eq ptr %1, null
  br i1 %cmp, label %if.then, label %if.end

if.then:                                          ; preds = %entry
  %2 = load ptr, ptr %errp.addr, align 8
  call void (ptr, ptr, i32, ptr, ptr, ...) @error_setg_internal(ptr noundef %2, ptr noundef @.str.5, i32 noundef 292, ptr noundef @__func__.qemu_chr_parse_serial, ptr noundef @.str.6)
  br label %return

if.end:                                           ; preds = %entry
  %3 = load ptr, ptr %backend.addr, align 8
  %type = getelementptr inbounds %struct.ChardevBackend, ptr %3, i32 0, i32 0
  store i32 1, ptr %type, align 8
  %call1 = call noalias ptr @g_malloc0_n(i64 noundef 1, i64 noundef 24) #6
  %4 = load ptr, ptr %backend.addr, align 8
  %u = getelementptr inbounds %struct.ChardevBackend, ptr %4, i32 0, i32 1
  %data = getelementptr inbounds %struct.ChardevHostdevWrapper, ptr %u, i32 0, i32 0
  store ptr %call1, ptr %data, align 8
  store ptr %call1, ptr %serial, align 8
  %5 = load ptr, ptr %opts.addr, align 8
  %6 = load ptr, ptr %serial, align 8
  %call2 = call ptr @qapi_ChardevHostdev_base(ptr noundef %6)
  call void @qemu_chr_parse_common(ptr noundef %5, ptr noundef %call2)
  %7 = load ptr, ptr %device, align 8
  %call3 = call noalias ptr @g_strdup(ptr noundef %7)
  %8 = load ptr, ptr %serial, align 8
  %device4 = getelementptr inbounds %struct.ChardevHostdev, ptr %8, i32 0, i32 3
  store ptr %call3, ptr %device4, align 8
  br label %return

return:                                           ; preds = %if.end, %if.then
  ret void
}