; Function Attrs: nounwind sspstrong uwtable
define internal void @qemu_chr_parse_serial(ptr noundef %opts, ptr noundef writeonly captures(none) %backend, ptr noundef %errp) #0 {
entry:
  %call = tail call ptr @qemu_opt_get(ptr noundef %opts, ptr noundef nonnull @.str.4) #7
  %cmp = icmp eq ptr %call, null
  br i1 %cmp, label %if.then, label %if.end

if.then:                                          ; preds = %entry
  tail call void (ptr, ptr, i32, ptr, ptr, ...) @error_setg_internal(ptr noundef %errp, ptr noundef nonnull @.str.5, i32 noundef 292, ptr noundef nonnull @__func__.qemu_chr_parse_serial, ptr noundef nonnull @.str.6) #7
  br label %return

if.end:                                           ; preds = %entry
  store i32 1, ptr %backend, align 8
  %call1 = tail call noalias dereferenceable_or_null(24) ptr @g_malloc0_n(i64 noundef 1, i64 noundef 24) #8
  %u = getelementptr inbounds nuw i8, ptr %backend, i64 8
  store ptr %call1, ptr %u, align 8
  tail call void @qemu_chr_parse_common(ptr noundef %opts, ptr noundef %call1) #7
  %call3 = tail call noalias ptr @g_strdup(ptr noundef nonnull %call) #7
  %device4 = getelementptr inbounds nuw i8, ptr %call1, i64 16
  store ptr %call3, ptr %device4, align 8
  br label %return

return:                                           ; preds = %if.end, %if.then
  ret void
}